; Function Attrs: mustprogress uwtable
define void @_ZN13sentencepiece25MultiFileSentenceIteratorC2ERKSt6vectorINSt7__cxx1112basic_stringIcSt11char_traitsIcESaIcEEESaIS7_EE(ptr noundef nonnull align 8 dereferenceable(88) %0, ptr noundef nonnull align 8 dereferenceable(24) %1) unnamed_addr #3 align 2 personality ptr @__gxx_personality_v0 {
  store ptr getelementptr inbounds inrange(-16, 48) (i8, ptr @_ZTVN13sentencepiece25MultiFileSentenceIteratorE, i64 16), ptr %0, align 8
  %3 = getelementptr inbounds i8, ptr %0, i64 8
  store i8 0, ptr %3, align 8
  %4 = getelementptr inbounds i8, ptr %0, i64 16
  store i64 0, ptr %4, align 8
  %5 = getelementptr inbounds i8, ptr %0, i64 24
  tail call void @_ZNSt6vectorINSt7__cxx1112basic_stringIcSt11char_traitsIcESaIcEEESaIS5_EEC2ERKS7_(ptr noundef nonnull align 8 dereferenceable(24) %5, ptr noundef nonnull align 8 dereferenceable(24) %1)
  %6 = getelementptr inbounds i8, ptr %0, i64 48
  tail call void @_ZNSt7__cxx1112basic_stringIcSt11char_traitsIcESaIcEEC1Ev(ptr noundef nonnull align 8 dereferenceable(32) %6) #23
  %7 = getelementptr inbounds i8, ptr %0, i64 80
  store ptr null, ptr %7, align 8
  %8 = load ptr, ptr %0, align 8
  %9 = getelementptr inbounds i8, ptr %8, i64 24
  %10 = load ptr, ptr %9, align 8
  invoke void %10(ptr noundef nonnull align 8 dereferenceable(88) %0)
          to label %11 unwind label %12

11:                                               ; preds = %2
  ret void

12:                                               ; preds = %2
  %13 = landingpad { ptr, i32 }
          cleanup
  %14 = load ptr, ptr %7, align 8
  %.not.i = icmp eq ptr %14, null
  br i1 %.not.i, label %_ZNSt10unique_ptrIN13sentencepiece10filesystem12ReadableFileESt14default_deleteIS2_EED2Ev.exit, label %_ZNKSt14default_deleteIN13sentencepiece10filesystem12ReadableFileEEclEPS2_.exit.i

_ZNKSt14default_deleteIN13sentencepiece10filesystem12ReadableFileEEclEPS2_.exit.i: ; preds = %12
  %15 = load ptr, ptr %14, align 8
  %16 = getelementptr inbounds i8, ptr %15, i64 8
  %17 = load ptr, ptr %16, align 8
  tail call void %17(ptr noundef nonnull align 8 dereferenceable(8) %14) #23
  br label %_ZNSt10unique_ptrIN13sentencepiece10filesystem12ReadableFileESt14default_deleteIS2_EED2Ev.exit

_ZNSt10unique_ptrIN13sentencepiece10filesystem12ReadableFileESt14default_deleteIS2_EED2Ev.exit: ; preds = %12, %_ZNKSt14default_deleteIN13sentencepiece10filesystem12ReadableFileEEclEPS2_.exit.i
  store ptr null, ptr %7, align 8
  tail call void @_ZNSt7__cxx1112basic_stringIcSt11char_traitsIcESaIcEED1Ev(ptr noundef nonnull align 8 dereferenceable(32) %6) #23
  tail call void @_ZNSt6vectorINSt7__cxx1112basic_stringIcSt11char_traitsIcESaIcEEESaIS5_EED2Ev(ptr noundef nonnull align 8 dereferenceable(24) %5) #23
  resume { ptr, i32 } %13
}